target datalayout = "e-m:e-p270:32:32-p271:32:32-p272:64:64-i64:64-i128:128-f80:128-n8:16:32:64-S128"
target triple = "x86_64-pc-linux-gnu"

%struct.ChunkInfo = type { i32, i32, i32 }

; Function Attrs: nounwind uwtable
define hidden i32 @ChunkGetIdFromTag(i32 noundef %0) #0 {
  %2 = alloca i32, align 4
  %3 = alloca i32, align 4
  %4 = alloca i32, align 4
  %5 = alloca i32, align 4
  store i32 %0, ptr %3, align 4, !tbaa !19
  call void @llvm.lifetime.start.p0(i64 4, ptr %4) #6
  store i32 0, ptr %4, align 4, !tbaa !19
  br label %6

6:                                                ; preds = %28, %1
  %7 = load i32, ptr %4, align 4, !tbaa !19
  %8 = sext i32 %7 to i64
  %9 = getelementptr inbounds [11 x %struct.ChunkInfo], ptr @kChunks, i64 0, i64 %8
  %10 = getelementptr inbounds nuw %struct.ChunkInfo, ptr %9, i32 0, i32 0
  %11 = load i32, ptr %10, align 4, !tbaa !20
  %12 = icmp ne i32 %11, 0
  br i1 %12, label %13, label %31

13:                                               ; preds = %6
  %14 = load i32, ptr %3, align 4, !tbaa !19
  %15 = load i32, ptr %4, align 4, !tbaa !19
  %16 = sext i32 %15 to i64
  %17 = getelementptr inbounds [11 x %struct.ChunkInfo], ptr @kChunks, i64 0, i64 %16
  %18 = getelementptr inbounds nuw %struct.ChunkInfo, ptr %17, i32 0, i32 0
  %19 = load i32, ptr %18, align 4, !tbaa !20
  %20 = icmp eq i32 %14, %19
  br i1 %20, label %21, label %27

21:                                               ; preds = %13
  %22 = load i32, ptr %4, align 4, !tbaa !19
  %23 = sext i32 %22 to i64
  %24 = getelementptr inbounds [11 x %struct.ChunkInfo], ptr @kChunks, i64 0, i64 %23
  %25 = getelementptr inbounds nuw %struct.ChunkInfo, ptr %24, i32 0, i32 1
  %26 = load i32, ptr %25, align 4, !tbaa !24
  store i32 %26, ptr %2, align 4
  store i32 1, ptr %5, align 4
  br label %32

27:                                               ; preds = %13
  br label %28

28:                                               ; preds = %27
  %29 = load i32, ptr %4, align 4, !tbaa !19
  %30 = add nsw i32 %29, 1
  store i32 %30, ptr %4, align 4, !tbaa !19
  br label %6, !llvm.loop !25

31:                                               ; preds = %6
  store i32 9, ptr %2, align 4
  store i32 1, ptr %5, align 4
  br label %32

32:                                               ; preds = %31, %21
  call void @llvm.lifetime.end.p0(i64 4, ptr %4) #6
  %33 = load i32, ptr %2, align 4
  ret i32 %33
}