; Function Attrs: nofree norecurse nosync nounwind memory(none) uwtable
define hidden i32 @ChunkGetIdFromTag(i32 noundef %0) local_unnamed_addr #5 {
  %2 = icmp eq i32 %0, 1480085590
  br i1 %2, label %._crit_edge, label %.lr.ph

.lr.ph:                                           ; preds = %1, %3
  %indvars.iv14 = phi i64 [ %indvars.iv.next, %3 ], [ 0, %1 ]
  %indvars.iv.next = add nuw nsw i64 %indvars.iv14, 1
  %exitcond = icmp eq i64 %indvars.iv.next, 9
  br i1 %exitcond, label %.loopexit, label %3, !llvm.loop !19

3:                                                ; preds = %.lr.ph
  %4 = getelementptr inbounds nuw [11 x %struct.ChunkInfo], ptr @kChunks, i64 0, i64 %indvars.iv.next
  %5 = load i32, ptr %4, align 4, !tbaa !15
  %6 = icmp eq i32 %0, %5
  br i1 %6, label %._crit_edge, label %.lr.ph, !llvm.loop !19

._crit_edge:                                      ; preds = %3, %1
  %.lcssa = phi ptr [ @kChunks, %1 ], [ %4, %3 ]
  %7 = getelementptr inbounds nuw i8, ptr %.lcssa, i64 4
  %8 = load i32, ptr %7, align 4, !tbaa !20
  br label %.loopexit

.loopexit:                                        ; preds = %.lr.ph, %._crit_edge
  %.06 = phi i32 [ %8, %._crit_edge ], [ 9, %.lr.ph ]
  ret i32 %.06
}